; Function Attrs: mustprogress nounwind uwtable
define hidden void @_ZN16JfrJavaArguments9set_klassEPKcP10JavaThread(ptr nocapture noundef nonnull writeonly align 8 dereferenceable(300) %0, ptr noundef %1, ptr noundef %2) local_unnamed_addr #6 align 2 {
  %4 = tail call i64 @strlen(ptr noundef nonnull dereferenceable(1) %1) #14
  %5 = trunc i64 %4 to i32
  %6 = tail call noundef ptr @_ZN11SymbolTable10new_symbolEPKci(ptr noundef %1, i32 noundef %5) #12
  %7 = tail call noundef ptr @_ZN16SystemDictionary15resolve_or_failEP6Symbol6HandleS2_bP10JavaThread(ptr noundef %6, ptr null, ptr null, i1 noundef zeroext true, ptr noundef %2) #12
  %8 = getelementptr inbounds i8, ptr %2, i64 8
  %9 = load ptr, ptr %8, align 8
  %.not = icmp eq ptr %9, null
  br i1 %.not, label %10, label %12

10:                                               ; preds = %3
  %11 = getelementptr inbounds i8, ptr %0, i64 272
  store ptr %7, ptr %11, align 8
  br label %12

12:                                               ; preds = %3, %10
  ret void
}